(lp1
(lp2
(I52
I204
tp3
a(I44
I412
tp4
a(I72
I419
tp5
a(I80
I206
tp6
aa(lp7
(I101
I201
tp8
a(I87
I413
tp9
a(I113
I416
tp10
a(I123
I202
tp11
aa(lp12
(I143
I203
tp13
a(I131
I416
tp14
a(I163
I418
tp15
a(I171
I205
tp16
aa(lp17
(I190
I204
tp18
a(I177
I415
tp19
a(I204
I414
tp20
a(I219
I205
tp21
aa(lp22
(I235
I205
tp23
a(I221
I412
tp24
a(I254
I416
tp25
a(I265
I209
tp26
aa(lp27
(I279
I204
tp28
a(I274
I419
tp29
a(I300
I421
tp30
a(I311
I212
tp31
aa(lp32
(I326
I206
tp33
a(I316
I422
tp34
a(I342
I424
tp35
a(I359
I207
tp36
aa(lp37
(I370
I204
tp38
a(I361
I419
tp39
a(I392
I422
tp40
a(I400
I205
tp41
aa(lp42
(I414
I205
tp43
a(I410
I425
tp44
a(I439
I425
tp45
a(I444
I211
tp46
aa(lp47
(I459
I205
tp48
a(I454
I428
tp49
a(I482
I428
tp50
a(I489
I212
tp51
aa(lp52
(I509
I211
tp53
a(I501
I428
tp54
a(I530
I428
tp55
a(I532
I214
tp56
aa(lp57
(I547
I209
tp58
a(I545
I423
tp59
a(I572
I426
tp60
a(I575
I212
tp61
aa.(lp1
I1
aI1
aI1
aI1
aI1
aI1
aI1
aI1
aI1
aI1
aI1
aI1
aI1
aI1
aI1
aI1
aI1
aI1
aI1
aI1
aI1
aI1
aI1
aI1
a.